target datalayout = "e-m:e-p270:32:32-p271:32:32-p272:64:64-i64:64-i128:128-f80:128-n8:16:32:64-S128"
target triple = "x86_64-pc-linux-gnu"

@gtk2_libhandle = internal global ptr null, align 8
@gthread_libhandle = internal global ptr null, align 8
@fp_g_object_unref = internal global ptr null, align 8
@fp_gtk_widget_destroy = internal global ptr null, align 8
@gtk2_white_pixmap = internal global ptr null, align 8
@gtk2_black_pixmap = internal global ptr null, align 8
@gtk2_white_pixbuf = internal global ptr null, align 8
@gtk2_black_pixbuf = internal global ptr null, align 8
@gtk2_pixbuf_width = internal global i32 0, align 4
@gtk2_pixbuf_height = internal global i32 0, align 4
@gtk2_window = internal global ptr null, align 8

; Function Attrs: nounwind uwtable
define hidden i32 @gtk2_unload() #0 {
  %1 = alloca i32, align 4
  %2 = alloca ptr, align 8
  %3 = load ptr, ptr @gtk2_libhandle, align 8
  %4 = icmp ne ptr %3, null
  br i1 %4, label %6, label %5

5:                                                ; preds = %0
  store i32 1, ptr %1, align 4
  br label %34

6:                                                ; preds = %0
  %7 = load ptr, ptr @gtk2_white_pixmap, align 8
  %8 = icmp ne ptr %7, null
  br i1 %8, label %9, label %18

9:                                                ; preds = %6
  %10 = load ptr, ptr @fp_g_object_unref, align 8
  %11 = load ptr, ptr @gtk2_white_pixmap, align 8
  call void %10(ptr noundef %11)
  %12 = load ptr, ptr @fp_g_object_unref, align 8
  %13 = load ptr, ptr @gtk2_black_pixmap, align 8
  call void %12(ptr noundef %13)
  %14 = load ptr, ptr @fp_g_object_unref, align 8
  %15 = load ptr, ptr @gtk2_white_pixbuf, align 8
  call void %14(ptr noundef %15)
  %16 = load ptr, ptr @fp_g_object_unref, align 8
  %17 = load ptr, ptr @gtk2_black_pixbuf, align 8
  call void %16(ptr noundef %17)
  store ptr null, ptr @gtk2_black_pixbuf, align 8
  store ptr null, ptr @gtk2_white_pixbuf, align 8
  store ptr null, ptr @gtk2_black_pixmap, align 8
  store ptr null, ptr @gtk2_white_pixmap, align 8
  br label %18

18:                                               ; preds = %9, %6
  store i32 0, ptr @gtk2_pixbuf_width, align 4
  store i32 0, ptr @gtk2_pixbuf_height, align 4
  %19 = load ptr, ptr @gtk2_window, align 8
  %20 = icmp ne ptr %19, null
  br i1 %20, label %21, label %24

21:                                               ; preds = %18
  %22 = load ptr, ptr @fp_gtk_widget_destroy, align 8
  %23 = load ptr, ptr @gtk2_window, align 8
  call void %22(ptr noundef %23)
  store ptr null, ptr @gtk2_window, align 8
  br label %24

24:                                               ; preds = %21, %18
  %25 = call ptr @dlerror() #7
  %26 = load ptr, ptr @gtk2_libhandle, align 8
  %27 = call i32 @dlclose(ptr noundef %26) #7
  %28 = load ptr, ptr @gthread_libhandle, align 8
  %29 = call i32 @dlclose(ptr noundef %28) #7
  %30 = call ptr @dlerror() #7
  store ptr %30, ptr %2, align 8
  %31 = icmp ne ptr %30, null
  br i1 %31, label %32, label %33

32:                                               ; preds = %24
  store i32 0, ptr %1, align 4
  br label %34

33:                                               ; preds = %24
  store i32 1, ptr %1, align 4
  br label %34

34:                                               ; preds = %33, %32, %5
  %35 = load i32, ptr %1, align 4
  ret i32 %35
}