; Function Attrs: nounwind uwtable
define hidden range(i32 0, 2) i32 @gtk2_unload() #0 {
  %1 = load ptr, ptr @gtk2_libhandle, align 8
  %.not = icmp eq ptr %1, null
  br i1 %.not, label %23, label %2

2:                                                ; preds = %0
  %3 = load ptr, ptr @gtk2_white_pixmap, align 8
  %.not3 = icmp eq ptr %3, null
  br i1 %.not3, label %12, label %4

4:                                                ; preds = %2
  %5 = load ptr, ptr @fp_g_object_unref, align 8
  tail call void %5(ptr noundef nonnull %3) #18
  %6 = load ptr, ptr @fp_g_object_unref, align 8
  %7 = load ptr, ptr @gtk2_black_pixmap, align 8
  tail call void %6(ptr noundef %7) #18
  %8 = load ptr, ptr @fp_g_object_unref, align 8
  %9 = load ptr, ptr @gtk2_white_pixbuf, align 8
  tail call void %8(ptr noundef %9) #18
  %10 = load ptr, ptr @fp_g_object_unref, align 8
  %11 = load ptr, ptr @gtk2_black_pixbuf, align 8
  tail call void %10(ptr noundef %11) #18
  store ptr null, ptr @gtk2_black_pixbuf, align 8
  store ptr null, ptr @gtk2_white_pixbuf, align 8
  store ptr null, ptr @gtk2_black_pixmap, align 8
  store ptr null, ptr @gtk2_white_pixmap, align 8
  br label %12

12:                                               ; preds = %4, %2
  store i32 0, ptr @gtk2_pixbuf_width, align 4
  store i32 0, ptr @gtk2_pixbuf_height, align 4
  %13 = load ptr, ptr @gtk2_window, align 8
  %.not4 = icmp eq ptr %13, null
  br i1 %.not4, label %16, label %14

14:                                               ; preds = %12
  %15 = load ptr, ptr @fp_gtk_widget_destroy, align 8
  tail call void %15(ptr noundef nonnull %13) #18
  store ptr null, ptr @gtk2_window, align 8
  br label %16

16:                                               ; preds = %14, %12
  %17 = tail call ptr @dlerror() #18
  %18 = load ptr, ptr @gtk2_libhandle, align 8
  %19 = tail call i32 @dlclose(ptr noundef %18) #18
  %20 = load ptr, ptr @gthread_libhandle, align 8
  %21 = tail call i32 @dlclose(ptr noundef %20) #18
  %22 = tail call ptr @dlerror() #18
  %.not5 = icmp eq ptr %22, null
  %. = zext i1 %.not5 to i32
  br label %23

23:                                               ; preds = %16, %0
  %.0 = phi i32 [ 1, %0 ], [ %., %16 ]
  ret i32 %.0
}